target datalayout = "e-m:e-p270:32:32-p271:32:32-p272:64:64-i64:64-i128:128-f80:128-n8:16:32:64-S128"
target triple = "x86_64-pc-linux-gnu"

%struct.PartitionBoundSpec = type { i32, i8, i8, i32, i32, ptr, ptr, ptr, i32 }

; Function Attrs: nounwind uwtable
define internal zeroext i1 @_equalPartitionBoundSpec(ptr noundef %0, ptr noundef %1) #0 {
  %3 = alloca i1, align 1
  %4 = alloca ptr, align 8
  %5 = alloca ptr, align 8
  store ptr %0, ptr %4, align 8
  store ptr %1, ptr %5, align 8
  br label %6

6:                                                ; preds = %2
  %7 = load ptr, ptr %4, align 8
  %8 = getelementptr inbounds nuw %struct.PartitionBoundSpec, ptr %7, i32 0, i32 1
  %9 = load i8, ptr %8, align 4
  %10 = sext i8 %9 to i32
  %11 = load ptr, ptr %5, align 8
  %12 = getelementptr inbounds nuw %struct.PartitionBoundSpec, ptr %11, i32 0, i32 1
  %13 = load i8, ptr %12, align 4
  %14 = sext i8 %13 to i32
  %15 = icmp ne i32 %10, %14
  br i1 %15, label %16, label %17

16:                                               ; preds = %6
  store i1 false, ptr %3, align 1
  br label %89

17:                                               ; preds = %6
  br label %18

18:                                               ; preds = %17
  br label %19

19:                                               ; preds = %18
  %20 = load ptr, ptr %4, align 8
  %21 = getelementptr inbounds nuw %struct.PartitionBoundSpec, ptr %20, i32 0, i32 2
  %22 = load i8, ptr %21, align 1, !range !4, !noundef !5
  %23 = trunc i8 %22 to i1
  %24 = zext i1 %23 to i32
  %25 = load ptr, ptr %5, align 8
  %26 = getelementptr inbounds nuw %struct.PartitionBoundSpec, ptr %25, i32 0, i32 2
  %27 = load i8, ptr %26, align 1, !range !4, !noundef !5
  %28 = trunc i8 %27 to i1
  %29 = zext i1 %28 to i32
  %30 = icmp ne i32 %24, %29
  br i1 %30, label %31, label %32

31:                                               ; preds = %19
  store i1 false, ptr %3, align 1
  br label %89

32:                                               ; preds = %19
  br label %33

33:                                               ; preds = %32
  br label %34

34:                                               ; preds = %33
  %35 = load ptr, ptr %4, align 8
  %36 = getelementptr inbounds nuw %struct.PartitionBoundSpec, ptr %35, i32 0, i32 3
  %37 = load i32, ptr %36, align 8
  %38 = load ptr, ptr %5, align 8
  %39 = getelementptr inbounds nuw %struct.PartitionBoundSpec, ptr %38, i32 0, i32 3
  %40 = load i32, ptr %39, align 8
  %41 = icmp ne i32 %37, %40
  br i1 %41, label %42, label %43

42:                                               ; preds = %34
  store i1 false, ptr %3, align 1
  br label %89

43:                                               ; preds = %34
  br label %44

44:                                               ; preds = %43
  br label %45

45:                                               ; preds = %44
  %46 = load ptr, ptr %4, align 8
  %47 = getelementptr inbounds nuw %struct.PartitionBoundSpec, ptr %46, i32 0, i32 4
  %48 = load i32, ptr %47, align 4
  %49 = load ptr, ptr %5, align 8
  %50 = getelementptr inbounds nuw %struct.PartitionBoundSpec, ptr %49, i32 0, i32 4
  %51 = load i32, ptr %50, align 4
  %52 = icmp ne i32 %48, %51
  br i1 %52, label %53, label %54

53:                                               ; preds = %45
  store i1 false, ptr %3, align 1
  br label %89

54:                                               ; preds = %45
  br label %55

55:                                               ; preds = %54
  br label %56

56:                                               ; preds = %55
  %57 = load ptr, ptr %4, align 8
  %58 = getelementptr inbounds nuw %struct.PartitionBoundSpec, ptr %57, i32 0, i32 5
  %59 = load ptr, ptr %58, align 8
  %60 = load ptr, ptr %5, align 8
  %61 = getelementptr inbounds nuw %struct.PartitionBoundSpec, ptr %60, i32 0, i32 5
  %62 = load ptr, ptr %61, align 8
  %63 = call zeroext i1 @equal(ptr noundef %59, ptr noundef %62)
  br i1 %63, label %65, label %64

64:                                               ; preds = %56
  store i1 false, ptr %3, align 1
  br label %89

65:                                               ; preds = %56
  br label %66

66:                                               ; preds = %65
  br label %67

67:                                               ; preds = %66
  %68 = load ptr, ptr %4, align 8
  %69 = getelementptr inbounds nuw %struct.PartitionBoundSpec, ptr %68, i32 0, i32 6
  %70 = load ptr, ptr %69, align 8
  %71 = load ptr, ptr %5, align 8
  %72 = getelementptr inbounds nuw %struct.PartitionBoundSpec, ptr %71, i32 0, i32 6
  %73 = load ptr, ptr %72, align 8
  %74 = call zeroext i1 @equal(ptr noundef %70, ptr noundef %73)
  br i1 %74, label %76, label %75

75:                                               ; preds = %67
  store i1 false, ptr %3, align 1
  br label %89

76:                                               ; preds = %67
  br label %77

77:                                               ; preds = %76
  br label %78

78:                                               ; preds = %77
  %79 = load ptr, ptr %4, align 8
  %80 = getelementptr inbounds nuw %struct.PartitionBoundSpec, ptr %79, i32 0, i32 7
  %81 = load ptr, ptr %80, align 8
  %82 = load ptr, ptr %5, align 8
  %83 = getelementptr inbounds nuw %struct.PartitionBoundSpec, ptr %82, i32 0, i32 7
  %84 = load ptr, ptr %83, align 8
  %85 = call zeroext i1 @equal(ptr noundef %81, ptr noundef %84)
  br i1 %85, label %87, label %86

86:                                               ; preds = %78
  store i1 false, ptr %3, align 1
  br label %89

87:                                               ; preds = %78
  br label %88

88:                                               ; preds = %87
  store i1 true, ptr %3, align 1
  br label %89

89:                                               ; preds = %88, %86, %75, %64, %53, %42, %31, %16
  %90 = load i1, ptr %3, align 1
  ret i1 %90
}