; Function Attrs: nounwind uwtable
define internal fastcc zeroext i1 @_equalPartitionBoundSpec(ptr noundef nonnull readonly captures(none) %0, ptr noundef nonnull readonly captures(none) %1) unnamed_addr #0 {
  %3 = getelementptr inbounds nuw i8, ptr %0, i64 4
  %4 = load i8, ptr %3, align 4
  %5 = getelementptr inbounds nuw i8, ptr %1, i64 4
  %6 = load i8, ptr %5, align 4
  %.not = icmp eq i8 %4, %6
  br i1 %.not, label %7, label %40

7:                                                ; preds = %2
  %8 = getelementptr inbounds nuw i8, ptr %0, i64 5
  %9 = load i8, ptr %8, align 1, !range !4, !noundef !5
  %10 = getelementptr inbounds nuw i8, ptr %1, i64 5
  %11 = load i8, ptr %10, align 1, !range !4, !noundef !5
  %.not15 = icmp eq i8 %9, %11
  br i1 %.not15, label %12, label %40

12:                                               ; preds = %7
  %13 = getelementptr inbounds nuw i8, ptr %0, i64 8
  %14 = load i32, ptr %13, align 8
  %15 = getelementptr inbounds nuw i8, ptr %1, i64 8
  %16 = load i32, ptr %15, align 8
  %.not16 = icmp eq i32 %14, %16
  br i1 %.not16, label %17, label %40

17:                                               ; preds = %12
  %18 = getelementptr inbounds nuw i8, ptr %0, i64 12
  %19 = load i32, ptr %18, align 4
  %20 = getelementptr inbounds nuw i8, ptr %1, i64 12
  %21 = load i32, ptr %20, align 4
  %.not17 = icmp eq i32 %19, %21
  br i1 %.not17, label %22, label %40

22:                                               ; preds = %17
  %23 = getelementptr inbounds nuw i8, ptr %0, i64 16
  %24 = load ptr, ptr %23, align 8
  %25 = getelementptr inbounds nuw i8, ptr %1, i64 16
  %26 = load ptr, ptr %25, align 8
  %27 = tail call zeroext i1 @equal(ptr noundef %24, ptr noundef %26)
  br i1 %27, label %28, label %40

28:                                               ; preds = %22
  %29 = getelementptr inbounds nuw i8, ptr %0, i64 24
  %30 = load ptr, ptr %29, align 8
  %31 = getelementptr inbounds nuw i8, ptr %1, i64 24
  %32 = load ptr, ptr %31, align 8
  %33 = tail call zeroext i1 @equal(ptr noundef %30, ptr noundef %32)
  br i1 %33, label %34, label %40

34:                                               ; preds = %28
  %35 = getelementptr inbounds nuw i8, ptr %0, i64 32
  %36 = load ptr, ptr %35, align 8
  %37 = getelementptr inbounds nuw i8, ptr %1, i64 32
  %38 = load ptr, ptr %37, align 8
  %39 = tail call zeroext i1 @equal(ptr noundef %36, ptr noundef %38)
  br label %40

40:                                               ; preds = %34, %28, %22, %17, %12, %7, %2
  %.0 = phi i1 [ false, %2 ], [ false, %7 ], [ false, %12 ], [ false, %17 ], [ false, %22 ], [ false, %28 ], [ %39, %34 ]
  ret i1 %.0
}